target datalayout = "e-m:e-p270:32:32-p271:32:32-p272:64:64-i64:64-i128:128-f80:128-n8:16:32:64-S128"
target triple = "x86_64-unknown-linux-gnu"

%class.b3CpuRigidBodyPipeline = type { ptr, ptr }
%struct.b3CpuRigidBodyPipelineInternalData = type { %class.b3AlignedObjectArray, %class.b3AlignedObjectArray.0, %class.b3AlignedObjectArray.4, ptr, ptr, %struct.b3Config }
%class.b3AlignedObjectArray = type <{ %class.b3AlignedAllocator, [3 x i8], i32, i32, [4 x i8], ptr, i8, [7 x i8] }>
%class.b3AlignedAllocator = type { i8 }
%class.b3AlignedObjectArray.0 = type <{ %class.b3AlignedAllocator.1, [3 x i8], i32, i32, [4 x i8], ptr, i8, [7 x i8] }>
%class.b3AlignedAllocator.1 = type { i8 }
%class.b3AlignedObjectArray.4 = type <{ %class.b3AlignedAllocator.5, [3 x i8], i32, i32, [4 x i8], ptr, i8, [7 x i8] }>
%class.b3AlignedAllocator.5 = type { i8 }
%struct.b3Config = type { i32, i32, i32, i32, i32, i32, i32, i32, i32, i32, i32, i32 }

; Function Attrs: mustprogress uwtable
define dso_local void @_ZN22b3CpuRigidBodyPipeline20computeContactPointsEv(ptr noundef nonnull align 8 dereferenceable(16) %this) unnamed_addr #0 align 2 {
entry:
  %this.addr = alloca ptr, align 8
  %pairs = alloca ptr, align 8
  store ptr %this, ptr %this.addr, align 8
  %this1 = load ptr, ptr %this.addr, align 8
  %m_data = getelementptr inbounds %class.b3CpuRigidBodyPipeline, ptr %this1, i32 0, i32 1
  %0 = load ptr, ptr %m_data, align 8
  %m_bp = getelementptr inbounds %struct.b3CpuRigidBodyPipelineInternalData, ptr %0, i32 0, i32 3
  %1 = load ptr, ptr %m_bp, align 8
  %vtable = load ptr, ptr %1, align 8
  %vfn = getelementptr inbounds ptr, ptr %vtable, i64 8
  %2 = load ptr, ptr %vfn, align 8
  %call = call noundef ptr %2(ptr noundef nonnull align 8 dereferenceable(315) %1)
  %vtable2 = load ptr, ptr %call, align 8
  %vfn3 = getelementptr inbounds ptr, ptr %vtable2, i64 4
  %3 = load ptr, ptr %vfn3, align 8
  %call4 = call noundef nonnull align 8 dereferenceable(25) ptr %3(ptr noundef nonnull align 8 dereferenceable(8) %call)
  store ptr %call4, ptr %pairs, align 8
  %m_data5 = getelementptr inbounds %class.b3CpuRigidBodyPipeline, ptr %this1, i32 0, i32 1
  %4 = load ptr, ptr %m_data5, align 8
  %m_np = getelementptr inbounds %struct.b3CpuRigidBodyPipelineInternalData, ptr %4, i32 0, i32 4
  %5 = load ptr, ptr %m_np, align 8
  %6 = load ptr, ptr %pairs, align 8
  %m_data6 = getelementptr inbounds %class.b3CpuRigidBodyPipeline, ptr %this1, i32 0, i32 1
  %7 = load ptr, ptr %m_data6, align 8
  %m_aabbWorldSpace = getelementptr inbounds %struct.b3CpuRigidBodyPipelineInternalData, ptr %7, i32 0, i32 2
  %m_data7 = getelementptr inbounds %class.b3CpuRigidBodyPipeline, ptr %this1, i32 0, i32 1
  %8 = load ptr, ptr %m_data7, align 8
  %m_rigidBodies = getelementptr inbounds %struct.b3CpuRigidBodyPipelineInternalData, ptr %8, i32 0, i32 0
  %vtable8 = load ptr, ptr %5, align 8
  %vfn9 = getelementptr inbounds ptr, ptr %vtable8, i64 2
  %9 = load ptr, ptr %vfn9, align 8
  call void %9(ptr noundef nonnull align 8 dereferenceable(28) %5, ptr noundef nonnull align 8 dereferenceable(25) %6, ptr noundef nonnull align 8 dereferenceable(25) %m_aabbWorldSpace, ptr noundef nonnull align 8 dereferenceable(25) %m_rigidBodies)
  ret void
}