; Function Attrs: mustprogress uwtable
define dso_local void @_ZN22b3CpuRigidBodyPipeline20computeContactPointsEv(ptr nocapture noundef nonnull readonly align 8 dereferenceable(16) %this) unnamed_addr #0 align 2 {
entry:
  %m_data = getelementptr inbounds i8, ptr %this, i64 8
  %0 = load ptr, ptr %m_data, align 8
  %m_bp = getelementptr inbounds i8, ptr %0, i64 96
  %1 = load ptr, ptr %m_bp, align 8
  %vtable = load ptr, ptr %1, align 8
  %vfn = getelementptr inbounds i8, ptr %vtable, i64 64
  %2 = load ptr, ptr %vfn, align 8
  %call = tail call noundef ptr %2(ptr noundef nonnull align 8 dereferenceable(315) %1)
  %vtable2 = load ptr, ptr %call, align 8
  %vfn3 = getelementptr inbounds i8, ptr %vtable2, i64 32
  %3 = load ptr, ptr %vfn3, align 8
  %call4 = tail call noundef nonnull align 8 dereferenceable(25) ptr %3(ptr noundef nonnull align 8 dereferenceable(8) %call)
  %4 = load ptr, ptr %m_data, align 8
  %m_np = getelementptr inbounds i8, ptr %4, i64 104
  %5 = load ptr, ptr %m_np, align 8
  %m_aabbWorldSpace = getelementptr inbounds i8, ptr %4, i64 64
  %vtable8 = load ptr, ptr %5, align 8
  %vfn9 = getelementptr inbounds i8, ptr %vtable8, i64 16
  %6 = load ptr, ptr %vfn9, align 8
  tail call void %6(ptr noundef nonnull align 8 dereferenceable(28) %5, ptr noundef nonnull align 8 dereferenceable(25) %call4, ptr noundef nonnull align 8 dereferenceable(25) %m_aabbWorldSpace, ptr noundef nonnull align 8 dereferenceable(25) %4)
  ret void
}